; Function Attrs: mustprogress uwtable
define hidden void @_ZN4cvc58internal16ProofNodeManager13ensureCheckedEPNS0_9ProofNodeE(ptr nocapture noundef nonnull readonly align 8 dereferenceable(32) %this, ptr noundef %pn) local_unnamed_addr #3 align 2 personality ptr @__gxx_personality_v0 {
entry:
  %res = alloca %"class.cvc5::internal::NodeTemplate", align 8
  %agg.tmp = alloca %"class.cvc5::internal::NodeTemplate", align 8
  %d_provenChecked = getelementptr inbounds i8, ptr %pn, i64 64
  %0 = load i8, ptr %d_provenChecked, align 8
  %1 = and i8 %0, 1
  %tobool.not = icmp eq i8 %1, 0
  br i1 %tobool.not, label %if.end, label %return

if.end:                                           ; preds = %entry
  %d_checker = getelementptr inbounds i8, ptr %this, i64 16
  %2 = load ptr, ptr %d_checker, align 8
  call void @_ZNK4cvc58internal9ProofNode9getResultEv(ptr nonnull sret(%"class.cvc5::internal::NodeTemplate") align 8 %agg.tmp, ptr noundef nonnull align 8 dereferenceable(65) %pn)
  invoke void @_ZN4cvc58internal12ProofChecker5checkEPNS0_9ProofNodeENS0_12NodeTemplateILb1EEE(ptr nonnull sret(%"class.cvc5::internal::NodeTemplate") align 8 %res, ptr noundef nonnull align 8 dereferenceable(128) %2, ptr noundef nonnull %pn, ptr noundef nonnull %agg.tmp)
          to label %invoke.cont unwind label %lpad

invoke.cont:                                      ; preds = %if.end
  %3 = load ptr, ptr %agg.tmp, align 8
  %bf.load.i.i = load i64, ptr %3, align 8
  %4 = and i64 %bf.load.i.i, 1152920405095219200
  %cmp.not.i.i = icmp eq i64 %4, 1152920405095219200
  br i1 %cmp.not.i.i, label %_ZN4cvc58internal12NodeTemplateILb1EED2Ev.exit, label %if.then.i.i

if.then.i.i:                                      ; preds = %invoke.cont
  %bf.value.i.i = add i64 %bf.load.i.i, 1152920405095219200
  %bf.shl.i.i = and i64 %bf.value.i.i, 1152920405095219200
  %bf.clear7.i.i = and i64 %bf.load.i.i, -1152920405095219201
  %bf.set.i.i = or disjoint i64 %bf.shl.i.i, %bf.clear7.i.i
  store i64 %bf.set.i.i, ptr %3, align 8
  %cmp12.i.i = icmp eq i64 %bf.shl.i.i, 0
  br i1 %cmp12.i.i, label %if.then13.i.i, label %_ZN4cvc58internal12NodeTemplateILb1EED2Ev.exit

if.then13.i.i:                                    ; preds = %if.then.i.i
  invoke void @_ZN4cvc58internal4expr9NodeValue15markForDeletionEv(ptr noundef nonnull align 8 dereferenceable(16) %3)
          to label %_ZN4cvc58internal12NodeTemplateILb1EED2Ev.exit unwind label %terminate.lpad.i

terminate.lpad.i:                                 ; preds = %if.then13.i.i
  %5 = landingpad { ptr, i32 }
          catch ptr null
  %6 = extractvalue { ptr, i32 } %5, 0
  call void @__clang_call_terminate(ptr %6) #21
  unreachable

_ZN4cvc58internal12NodeTemplateILb1EED2Ev.exit:   ; preds = %invoke.cont, %if.then.i.i, %if.then13.i.i
  store i8 1, ptr %d_provenChecked, align 8
  %7 = load ptr, ptr %res, align 8
  %bf.load.i.i4 = load i64, ptr %7, align 8
  %8 = and i64 %bf.load.i.i4, 1152920405095219200
  %cmp.not.i.i5 = icmp eq i64 %8, 1152920405095219200
  br i1 %cmp.not.i.i5, label %return, label %if.then.i.i6

if.then.i.i6:                                     ; preds = %_ZN4cvc58internal12NodeTemplateILb1EED2Ev.exit
  %bf.value.i.i7 = add i64 %bf.load.i.i4, 1152920405095219200
  %bf.shl.i.i8 = and i64 %bf.value.i.i7, 1152920405095219200
  %bf.clear7.i.i9 = and i64 %bf.load.i.i4, -1152920405095219201
  %bf.set.i.i10 = or disjoint i64 %bf.shl.i.i8, %bf.clear7.i.i9
  store i64 %bf.set.i.i10, ptr %7, align 8
  %cmp12.i.i11 = icmp eq i64 %bf.shl.i.i8, 0
  br i1 %cmp12.i.i11, label %if.then13.i.i12, label %return

if.then13.i.i12:                                  ; preds = %if.then.i.i6
  invoke void @_ZN4cvc58internal4expr9NodeValue15markForDeletionEv(ptr noundef nonnull align 8 dereferenceable(16) %7)
          to label %return unwind label %terminate.lpad.i13

terminate.lpad.i13:                               ; preds = %if.then13.i.i12
  %9 = landingpad { ptr, i32 }
          catch ptr null
  %10 = extractvalue { ptr, i32 } %9, 0
  call void @__clang_call_terminate(ptr %10) #21
  unreachable

return:                                           ; preds = %if.then13.i.i12, %if.then.i.i6, %_ZN4cvc58internal12NodeTemplateILb1EED2Ev.exit, %entry
  ret void

lpad:                                             ; preds = %if.end
  %11 = landingpad { ptr, i32 }
          cleanup
  call void @_ZN4cvc58internal12NodeTemplateILb1EED2Ev(ptr noundef nonnull align 8 dereferenceable(8) %agg.tmp) #19
  resume { ptr, i32 } %11
}